target datalayout = "e-m:e-p270:32:32-p271:32:32-p272:64:64-i64:64-i128:128-f80:128-n8:16:32:64-S128"
target triple = "x86_64-pc-linux-gnu"

%struct.nameData = type { [64 x i8] }
%struct.HeapTupleData = type { i32, %struct.ItemPointerData, i32, ptr }
%struct.ItemPointerData = type { %struct.BlockIdData, i16 }
%struct.BlockIdData = type { i16, i16 }
%struct.HeapTupleHeaderData = type { %union.anon.1, %struct.ItemPointerData, i16, i16, i8, [0 x i8] }
%union.anon.1 = type { %struct.HeapTupleFields }
%struct.HeapTupleFields = type { i32, i32, %union.anon.2 }
%union.anon.2 = type { i32 }
%struct.FormData_pg_language = type { i32, %struct.nameData, i32, i8, i8, i32, i32, i32 }

@.str.1 = private unnamed_addr constant [9 x i8] c"aclchk.c\00", align 1
@.str.132 = private unnamed_addr constant [29 x i8] c"language \22%s\22 is not trusted\00", align 1
@.str.133 = private unnamed_addr constant [110 x i8] c"GRANT and REVOKE are not allowed on untrusted languages, because only superusers can use untrusted languages.\00", align 1
@__func__.ExecGrant_Language_check = private unnamed_addr constant [25 x i8] c"ExecGrant_Language_check\00", align 1

; Function Attrs: inlinehint nounwind uwtable
define internal ptr @GETSTRUCT(ptr noundef %0) #7 {
  %2 = alloca ptr, align 8
  store ptr %0, ptr %2, align 8
  %3 = load ptr, ptr %2, align 8
  %4 = getelementptr inbounds nuw %struct.HeapTupleData, ptr %3, i32 0, i32 3
  %5 = load ptr, ptr %4, align 8
  %6 = load ptr, ptr %2, align 8
  %7 = getelementptr inbounds nuw %struct.HeapTupleData, ptr %6, i32 0, i32 3
  %8 = load ptr, ptr %7, align 8
  %9 = getelementptr inbounds nuw %struct.HeapTupleHeaderData, ptr %8, i32 0, i32 4
  %10 = load i8, ptr %9, align 2
  %11 = zext i8 %10 to i32
  %12 = sext i32 %11 to i64
  %13 = getelementptr inbounds i8, ptr %5, i64 %12
  ret ptr %13
}

; Function Attrs: nounwind uwtable
define internal void @ExecGrant_Language_check(ptr noundef %0, ptr noundef %1) #0 {
  %3 = alloca ptr, align 8
  %4 = alloca ptr, align 8
  %5 = alloca ptr, align 8
  store ptr %0, ptr %3, align 8
  store ptr %1, ptr %4, align 8
  call void @llvm.lifetime.start.p0(i64 8, ptr %5) #9
  %6 = load ptr, ptr %4, align 8
  %7 = call ptr @GETSTRUCT(ptr noundef %6)
  store ptr %7, ptr %5, align 8
  %8 = load ptr, ptr %5, align 8
  %9 = getelementptr inbounds nuw %struct.FormData_pg_language, ptr %8, i32 0, i32 4
  %10 = load i8, ptr %9, align 1, !range !4, !noundef !5
  %11 = trunc i8 %10 to i1
  br i1 %11, label %29, label %12

12:                                               ; preds = %2
  br label %13

13:                                               ; preds = %12
  br i1 true, label %14, label %16

14:                                               ; preds = %13
  %15 = call zeroext i1 @errstart_cold(i32 noundef 21, ptr noundef null) #10
  br i1 %15, label %18, label %26

16:                                               ; preds = %13
  %17 = call zeroext i1 @errstart(i32 noundef 21, ptr noundef null)
  br i1 %17, label %18, label %26

18:                                               ; preds = %16, %14
  %19 = call i32 @errcode(i32 noundef 151027844)
  %20 = load ptr, ptr %5, align 8
  %21 = getelementptr inbounds nuw %struct.FormData_pg_language, ptr %20, i32 0, i32 1
  %22 = getelementptr inbounds nuw %struct.nameData, ptr %21, i32 0, i32 0
  %23 = getelementptr inbounds [64 x i8], ptr %22, i64 0, i64 0
  %24 = call i32 (ptr, ...) @errmsg(ptr noundef @.str.132, ptr noundef %23)
  %25 = call i32 (ptr, ...) @errdetail(ptr noundef @.str.133)
  call void @errfinish(ptr noundef @.str.1, i32 noundef 2231, ptr noundef @__func__.ExecGrant_Language_check)
  br label %26

26:                                               ; preds = %18, %16, %14
  unreachable

27:                                               ; No predecessors!
  br label %28

28:                                               ; preds = %27
  br label %29

29:                                               ; preds = %28, %2
  call void @llvm.lifetime.end.p0(i64 8, ptr %5) #9
  ret void
}