; Function Attrs: nounwind uwtable
define internal void @ExecGrant_Language_check(ptr readnone captures(none) %0, ptr noundef readonly captures(none) %1) #0 {
  %3 = getelementptr i8, ptr %1, i64 16
  %.val = load ptr, ptr %3, align 8
  %4 = getelementptr inbounds nuw i8, ptr %.val, i64 22
  %5 = load i8, ptr %4, align 2
  %6 = zext i8 %5 to i64
  %7 = getelementptr inbounds nuw i8, ptr %.val, i64 %6
  %8 = getelementptr inbounds nuw i8, ptr %7, i64 73
  %9 = load i8, ptr %8, align 1, !range !4, !noundef !5
  %10 = trunc nuw i8 %9 to i1
  br i1 %10, label %17, label %11

11:                                               ; preds = %2
  %12 = tail call zeroext i1 @errstart_cold(i32 noundef 21, ptr noundef null) #10
  tail call void @llvm.assume(i1 %12)
  %13 = tail call i32 @errcode(i32 noundef 151027844) #9
  %14 = getelementptr inbounds nuw i8, ptr %7, i64 4
  %15 = tail call i32 (ptr, ...) @errmsg(ptr noundef nonnull @.str.132, ptr noundef nonnull %14) #9
  %16 = tail call i32 (ptr, ...) @errdetail(ptr noundef nonnull @.str.133) #9
  tail call void @errfinish(ptr noundef nonnull @.str.1, i32 noundef 2231, ptr noundef nonnull @__func__.ExecGrant_Language_check) #9
  unreachable

17:                                               ; preds = %2
  ret void
}